target datalayout = "e-m:e-p270:32:32-p271:32:32-p272:64:64-i64:64-i128:128-f80:128-n8:16:32:64-S128"
target triple = "x86_64-pc-linux-gnu"

%struct._wmem_strbuf_t = type { ptr, ptr, i64, i64 }

; Function Attrs: alwaysinline nounwind
define internal ptr @memcpy.inline(ptr noalias %0, ptr noalias %1, i64 %2) #3 {
  %4 = alloca ptr, align 8
  %5 = alloca ptr, align 8
  %6 = alloca i64, align 8
  store ptr %0, ptr %4, align 8
  store ptr %1, ptr %5, align 8
  store i64 %2, ptr %6, align 8
  %7 = load ptr, ptr %4, align 8
  %8 = load ptr, ptr %5, align 8
  %9 = load i64, ptr %6, align 8
  %10 = load ptr, ptr %4, align 8
  %11 = call i64 @llvm.objectsize.i64.p0(ptr %10, i1 false, i1 true, i1 true)
  %12 = call ptr @__memcpy_chk(ptr noundef %7, ptr noundef %8, i64 noundef %9, i64 noundef %11) #15
  ret ptr %12
}

; Function Attrs: null_pointer_is_valid sspstrong uwtable
define noalias ptr @wmem_strbuf_new_sized(ptr noundef %0, i64 noundef %1) #0 {
  %3 = alloca ptr, align 8
  %4 = alloca i64, align 8
  %5 = alloca ptr, align 8
  store ptr %0, ptr %3, align 8
  store i64 %1, ptr %4, align 8
  call void @llvm.lifetime.start.p0(i64 8, ptr %5) #15
  %6 = load ptr, ptr %3, align 8
  %7 = call noalias ptr @wmem_alloc(ptr noundef %6, i64 noundef 32) #16
  store ptr %7, ptr %5, align 8
  %8 = load ptr, ptr %3, align 8
  %9 = load ptr, ptr %5, align 8
  %10 = getelementptr inbounds nuw %struct._wmem_strbuf_t, ptr %9, i32 0, i32 0
  store ptr %8, ptr %10, align 8
  %11 = load ptr, ptr %5, align 8
  %12 = getelementptr inbounds nuw %struct._wmem_strbuf_t, ptr %11, i32 0, i32 2
  store i64 0, ptr %12, align 8
  %13 = load i64, ptr %4, align 8
  %14 = icmp ne i64 %13, 0
  br i1 %14, label %15, label %17

15:                                               ; preds = %2
  %16 = load i64, ptr %4, align 8
  br label %18

17:                                               ; preds = %2
  br label %18

18:                                               ; preds = %17, %15
  %19 = phi i64 [ %16, %15 ], [ 16, %17 ]
  %20 = load ptr, ptr %5, align 8
  %21 = getelementptr inbounds nuw %struct._wmem_strbuf_t, ptr %20, i32 0, i32 3
  store i64 %19, ptr %21, align 8
  %22 = load ptr, ptr %5, align 8
  %23 = getelementptr inbounds nuw %struct._wmem_strbuf_t, ptr %22, i32 0, i32 0
  %24 = load ptr, ptr %23, align 8
  %25 = load ptr, ptr %5, align 8
  %26 = getelementptr inbounds nuw %struct._wmem_strbuf_t, ptr %25, i32 0, i32 3
  %27 = load i64, ptr %26, align 8
  %28 = call noalias ptr @wmem_alloc(ptr noundef %24, i64 noundef %27) #16
  %29 = load ptr, ptr %5, align 8
  %30 = getelementptr inbounds nuw %struct._wmem_strbuf_t, ptr %29, i32 0, i32 1
  store ptr %28, ptr %30, align 8
  %31 = load ptr, ptr %5, align 8
  %32 = getelementptr inbounds nuw %struct._wmem_strbuf_t, ptr %31, i32 0, i32 1
  %33 = load ptr, ptr %32, align 8
  %34 = getelementptr i8, ptr %33, i64 0
  store i8 0, ptr %34, align 1
  %35 = load ptr, ptr %5, align 8
  call void @llvm.lifetime.end.p0(i64 8, ptr %5) #15
  ret ptr %35
}

; Function Attrs: null_pointer_is_valid sspstrong uwtable
define noalias ptr @wmem_strbuf_new_len(ptr noundef %0, ptr noundef %1, i64 noundef %2) #0 {
  %4 = alloca ptr, align 8
  %5 = alloca ptr, align 8
  %6 = alloca i64, align 8
  %7 = alloca ptr, align 8
  %8 = alloca i64, align 8
  store ptr %0, ptr %4, align 8
  store ptr %1, ptr %5, align 8
  store i64 %2, ptr %6, align 8
  call void @llvm.lifetime.start.p0(i64 8, ptr %7) #15
  call void @llvm.lifetime.start.p0(i64 8, ptr %8) #15
  store i64 16, ptr %8, align 8
  br label %9

9:                                                ; preds = %14, %3
  %10 = load i64, ptr %8, align 8
  %11 = load i64, ptr %6, align 8
  %12 = add i64 %11, 1
  %13 = icmp ult i64 %10, %12
  br i1 %13, label %14, label %17

14:                                               ; preds = %9
  %15 = load i64, ptr %8, align 8
  %16 = mul i64 %15, 2
  store i64 %16, ptr %8, align 8
  br label %9, !llvm.loop !6

17:                                               ; preds = %9
  %18 = load ptr, ptr %4, align 8
  %19 = load i64, ptr %8, align 8
  %20 = call noalias ptr @wmem_strbuf_new_sized(ptr noundef %18, i64 noundef %19)
  store ptr %20, ptr %7, align 8
  %21 = load ptr, ptr %5, align 8
  %22 = icmp ne ptr %21, null
  br i1 %22, label %23, label %44

23:                                               ; preds = %17
  %24 = load i64, ptr %6, align 8
  %25 = icmp ugt i64 %24, 0
  br i1 %25, label %26, label %44

26:                                               ; preds = %23
  br label %27

27:                                               ; preds = %26
  br label %28

28:                                               ; preds = %27
  br label %29

29:                                               ; preds = %28
  %30 = load ptr, ptr %7, align 8
  %31 = getelementptr inbounds nuw %struct._wmem_strbuf_t, ptr %30, i32 0, i32 1
  %32 = load ptr, ptr %31, align 8
  %33 = load ptr, ptr %5, align 8
  %34 = load i64, ptr %6, align 8
  %35 = call ptr @memcpy.inline(ptr noundef %32, ptr noundef %33, i64 noundef %34) #15
  %36 = load ptr, ptr %7, align 8
  %37 = getelementptr inbounds nuw %struct._wmem_strbuf_t, ptr %36, i32 0, i32 1
  %38 = load ptr, ptr %37, align 8
  %39 = load i64, ptr %6, align 8
  %40 = getelementptr i8, ptr %38, i64 %39
  store i8 0, ptr %40, align 1
  %41 = load i64, ptr %6, align 8
  %42 = load ptr, ptr %7, align 8
  %43 = getelementptr inbounds nuw %struct._wmem_strbuf_t, ptr %42, i32 0, i32 2
  store i64 %41, ptr %43, align 8
  br label %44

44:                                               ; preds = %29, %23, %17
  %45 = load ptr, ptr %7, align 8
  call void @llvm.lifetime.end.p0(i64 8, ptr %8) #15
  call void @llvm.lifetime.end.p0(i64 8, ptr %7) #15
  ret ptr %45
}