; Function Attrs: null_pointer_is_valid sspstrong uwtable
define noalias noundef ptr @wmem_strbuf_new_len(ptr noundef %0, ptr noundef readonly captures(address_is_null) %1, i64 noundef %2) local_unnamed_addr #0 {
  %4 = add i64 %2, 1
  br label %5

5:                                                ; preds = %5, %3
  %.0 = phi i64 [ 16, %3 ], [ %7, %5 ]
  %6 = icmp ult i64 %.0, %4
  %7 = shl i64 %.0, 1
  br i1 %6, label %5, label %8, !llvm.loop !6

8:                                                ; preds = %5
  %9 = tail call noalias dereferenceable_or_null(32) ptr @wmem_alloc(ptr noundef %0, i64 noundef 32) #16
  store ptr %0, ptr %9, align 8
  %10 = getelementptr inbounds nuw i8, ptr %9, i64 16
  store i64 0, ptr %10, align 8
  %.not.i = icmp eq i64 %.0, 0
  %11 = select i1 %.not.i, i64 16, i64 %.0
  %12 = getelementptr inbounds nuw i8, ptr %9, i64 24
  store i64 %11, ptr %12, align 8
  %13 = tail call noalias ptr @wmem_alloc(ptr noundef %0, i64 noundef %11) #16
  %14 = getelementptr inbounds nuw i8, ptr %9, i64 8
  store ptr %13, ptr %14, align 8
  store i8 0, ptr %13, align 1
  %15 = icmp ne ptr %1, null
  %16 = icmp ne i64 %2, 0
  %or.cond = and i1 %15, %16
  br i1 %or.cond, label %17, label %20

17:                                               ; preds = %8
  %18 = tail call ptr @__memcpy_chk(ptr noundef %13, ptr noundef nonnull %1, i64 noundef %2, i64 noundef %11) #17, !alias.scope !8
  %19 = getelementptr i8, ptr %13, i64 %2
  store i8 0, ptr %19, align 1
  store i64 %2, ptr %10, align 8
  br label %20

20:                                               ; preds = %17, %8
  ret ptr %9
}